target datalayout = "e-m:e-p270:32:32-p271:32:32-p272:64:64-i64:64-i128:128-f80:128-n8:16:32:64-S128"
target triple = "x86_64-pc-linux-gnu"

%"class.cv::Size_" = type { i32, i32 }
%"class.perf::TestBase" = type { %"class.testing::Test", %"class.std::vector", %"class.std::vector", i32, %"class.std::vector.0", i64, i64, i64, i32, i32, i32, i32, i32, [4 x i8], %"struct.perf::performance_metrics", i8, %"class.perf::TestBase::_declareHelper" }
%"class.testing::Test" = type { ptr, %"class.testing::internal::scoped_ptr" }
%"class.testing::internal::scoped_ptr" = type { ptr }
%"class.std::vector" = type { %"struct.std::_Vector_base" }
%"struct.std::_Vector_base" = type { %"struct.std::_Vector_base<std::pair<int, cv::Size_<int>>, std::allocator<std::pair<int, cv::Size_<int>>>>::_Vector_impl" }
%"struct.std::_Vector_base<std::pair<int, cv::Size_<int>>, std::allocator<std::pair<int, cv::Size_<int>>>>::_Vector_impl" = type { %"struct.std::_Vector_base<std::pair<int, cv::Size_<int>>, std::allocator<std::pair<int, cv::Size_<int>>>>::_Vector_impl_data" }
%"struct.std::_Vector_base<std::pair<int, cv::Size_<int>>, std::allocator<std::pair<int, cv::Size_<int>>>>::_Vector_impl_data" = type { ptr, ptr, ptr }
%"class.std::vector.0" = type { %"struct.std::_Vector_base.1" }
%"struct.std::_Vector_base.1" = type { %"struct.std::_Vector_base<long, std::allocator<long>>::_Vector_impl" }
%"struct.std::_Vector_base<long, std::allocator<long>>::_Vector_impl" = type { %"struct.std::_Vector_base<long, std::allocator<long>>::_Vector_impl_data" }
%"struct.std::_Vector_base<long, std::allocator<long>>::_Vector_impl_data" = type { ptr, ptr, ptr }
%"struct.perf::performance_metrics" = type <{ i64, i64, i32, i32, double, double, double, double, double, double, double, i32, [4 x i8] }>
%"class.perf::TestBase::_declareHelper" = type { ptr }
%"class.opencv_test::TestFunctional" = type { %"class.cv::Mat", %"class.cv::Mat", %"class.cv::Mat", %"class.cv::Mat", %"class.cv::Scalar_" }
%"class.cv::Mat" = type { i32, i32, i32, i32, ptr, ptr, ptr, ptr, ptr, ptr, %"struct.cv::MatSize", %"struct.cv::MatStep" }
%"struct.cv::MatSize" = type { ptr }
%"struct.cv::MatStep" = type { ptr, [2 x i64] }
%"class.cv::Scalar_" = type { %"class.cv::Vec" }
%"class.cv::Vec" = type { %"class.cv::Matx" }
%"class.cv::Matx" = type { [4 x double] }
%class.anon.34 = type { ptr, ptr, ptr, ptr, ptr, ptr }

; Function Attrs: mustprogress nounwind uwtable
define linkonce_odr hidden void @_ZN4perf8TestBase11setVerifiedEv(ptr noundef nonnull align 8 dereferenceable(248) %0) #4 comdat align 2 {
  %2 = alloca ptr, align 8
  store ptr %0, ptr %2, align 8
  %3 = load ptr, ptr %2, align 8
  %4 = getelementptr inbounds %"class.perf::TestBase", ptr %3, i32 0, i32 15
  store i8 1, ptr %4, align 8
  ret void
}

; Function Attrs: mustprogress uwtable
define hidden void @_ZN11opencv_test37SobelEdgeDetector_OpenCV_Smarter_Test12PerfTestBodyEv(ptr noundef nonnull align 8 dereferenceable(673) %0) unnamed_addr #5 align 2 personality ptr @__gxx_personality_v0 {
  %2 = alloca ptr, align 8
  %3 = alloca %"class.cv::Size_", align 4
  %4 = alloca %"class.cv::Size_", align 4
  %5 = alloca %"class.cv::Mat", align 8
  %6 = alloca %"class.cv::Mat", align 8
  %7 = alloca %"class.cv::Mat", align 8
  %8 = alloca %"class.cv::Mat", align 8
  %9 = alloca %"class.cv::Mat", align 8
  %10 = alloca %"class.cv::Mat", align 8
  %11 = alloca %class.anon.34, align 8
  %12 = alloca ptr, align 8
  %13 = alloca i32, align 4
  store ptr %0, ptr %2, align 8
  %14 = load ptr, ptr %2, align 8
  %15 = getelementptr inbounds i8, ptr %14, i64 248
  %16 = call noundef nonnull align 4 dereferenceable(8) ptr @_ZNK7testing18WithParamInterfaceIN2cv5Size_IiEEE8GetParamEv(ptr noundef nonnull align 8 dereferenceable(8) %15)
  call void @llvm.memcpy.p0.p0.i64(ptr align 4 %3, ptr align 4 %16, i64 8, i1 false)
  %17 = getelementptr inbounds i8, ptr %14, i64 256
  call void @llvm.memcpy.p0.p0.i64(ptr align 4 %4, ptr align 4 %3, i64 8, i1 false)
  %18 = load i64, ptr %4, align 4
  call void @_ZN11opencv_test14TestFunctional13initMatsRandUEiN2cv5Size_IiEEib(ptr noundef nonnull align 8 dereferenceable(416) %17, i32 noundef 16, i64 %18, i32 noundef 16, i1 noundef zeroext false)
  call void @_ZN2cv3MatC1Ev(ptr noundef nonnull align 8 dereferenceable(96) %5) #3
  call void @_ZN2cv3MatC1Ev(ptr noundef nonnull align 8 dereferenceable(96) %6) #3
  call void @_ZN2cv3MatC1Ev(ptr noundef nonnull align 8 dereferenceable(96) %7) #3
  call void @_ZN2cv3MatC1Ev(ptr noundef nonnull align 8 dereferenceable(96) %8) #3
  call void @_ZN2cv3MatC1Ev(ptr noundef nonnull align 8 dereferenceable(96) %9) #3
  call void @_ZN2cv3MatC1Ev(ptr noundef nonnull align 8 dereferenceable(96) %10) #3
  %19 = getelementptr inbounds %class.anon.34, ptr %11, i32 0, i32 0
  store ptr %5, ptr %19, align 8
  %20 = getelementptr inbounds %class.anon.34, ptr %11, i32 0, i32 1
  store ptr %6, ptr %20, align 8
  %21 = getelementptr inbounds %class.anon.34, ptr %11, i32 0, i32 2
  store ptr %7, ptr %21, align 8
  %22 = getelementptr inbounds %class.anon.34, ptr %11, i32 0, i32 3
  store ptr %8, ptr %22, align 8
  %23 = getelementptr inbounds %class.anon.34, ptr %11, i32 0, i32 4
  store ptr %9, ptr %23, align 8
  %24 = getelementptr inbounds %class.anon.34, ptr %11, i32 0, i32 5
  store ptr %10, ptr %24, align 8
  %25 = getelementptr inbounds i8, ptr %14, i64 256
  %26 = getelementptr inbounds %"class.opencv_test::TestFunctional", ptr %25, i32 0, i32 0
  %27 = getelementptr inbounds i8, ptr %14, i64 256
  %28 = getelementptr inbounds %"class.opencv_test::TestFunctional", ptr %27, i32 0, i32 2
  invoke void @"_ZZN11opencv_test37SobelEdgeDetector_OpenCV_Smarter_Test12PerfTestBodyEvENK3$_0clERKN2cv3MatERS3_"(ptr noundef nonnull align 8 dereferenceable(48) %11, ptr noundef nonnull align 8 dereferenceable(96) %26, ptr noundef nonnull align 8 dereferenceable(96) %28)
          to label %29 unwind label %46

29:                                               ; preds = %1
  br label %30

30:                                               ; preds = %45, %29
  %31 = invoke noundef zeroext i1 @_ZN4perf8TestBase4nextEv(ptr noundef nonnull align 8 dereferenceable(248) %14)
          to label %32 unwind label %46

32:                                               ; preds = %30
  br i1 %31, label %33, label %36

33:                                               ; preds = %32
  %34 = invoke noundef zeroext i1 @_ZN4perf8TestBase10startTimerEv(ptr noundef nonnull align 8 dereferenceable(248) %14)
          to label %35 unwind label %46

35:                                               ; preds = %33
  br label %36

36:                                               ; preds = %35, %32
  %37 = phi i1 [ false, %32 ], [ %34, %35 ]
  br i1 %37, label %38, label %50

38:                                               ; preds = %36
  %39 = getelementptr inbounds i8, ptr %14, i64 256
  %40 = getelementptr inbounds %"class.opencv_test::TestFunctional", ptr %39, i32 0, i32 0
  %41 = getelementptr inbounds i8, ptr %14, i64 256
  %42 = getelementptr inbounds %"class.opencv_test::TestFunctional", ptr %41, i32 0, i32 2
  invoke void @"_ZZN11opencv_test37SobelEdgeDetector_OpenCV_Smarter_Test12PerfTestBodyEvENK3$_0clERKN2cv3MatERS3_"(ptr noundef nonnull align 8 dereferenceable(48) %11, ptr noundef nonnull align 8 dereferenceable(96) %40, ptr noundef nonnull align 8 dereferenceable(96) %42)
          to label %43 unwind label %46

43:                                               ; preds = %38
  br label %44

44:                                               ; preds = %43
  invoke void @_ZN4perf8TestBase9stopTimerEv(ptr noundef nonnull align 8 dereferenceable(248) %14)
          to label %45 unwind label %46

45:                                               ; preds = %44
  br label %30, !llvm.loop !8

46:                                               ; preds = %50, %44, %38, %33, %30, %1
  %47 = landingpad { ptr, i32 }
          cleanup
  %48 = extractvalue { ptr, i32 } %47, 0
  store ptr %48, ptr %12, align 8
  %49 = extractvalue { ptr, i32 } %47, 1
  store i32 %49, ptr %13, align 4
  call void @_ZN2cv3MatD1Ev(ptr noundef nonnull align 8 dereferenceable(96) %10) #3
  call void @_ZN2cv3MatD1Ev(ptr noundef nonnull align 8 dereferenceable(96) %9) #3
  call void @_ZN2cv3MatD1Ev(ptr noundef nonnull align 8 dereferenceable(96) %8) #3
  call void @_ZN2cv3MatD1Ev(ptr noundef nonnull align 8 dereferenceable(96) %7) #3
  call void @_ZN2cv3MatD1Ev(ptr noundef nonnull align 8 dereferenceable(96) %6) #3
  call void @_ZN2cv3MatD1Ev(ptr noundef nonnull align 8 dereferenceable(96) %5) #3
  br label %52

50:                                               ; preds = %36
  invoke void @_ZN4perf8TestBase11setVerifiedEv(ptr noundef nonnull align 8 dereferenceable(248) %14)
          to label %51 unwind label %46

51:                                               ; preds = %50
  call void @_ZN2cv3MatD1Ev(ptr noundef nonnull align 8 dereferenceable(96) %10) #3
  call void @_ZN2cv3MatD1Ev(ptr noundef nonnull align 8 dereferenceable(96) %9) #3
  call void @_ZN2cv3MatD1Ev(ptr noundef nonnull align 8 dereferenceable(96) %8) #3
  call void @_ZN2cv3MatD1Ev(ptr noundef nonnull align 8 dereferenceable(96) %7) #3
  call void @_ZN2cv3MatD1Ev(ptr noundef nonnull align 8 dereferenceable(96) %6) #3
  call void @_ZN2cv3MatD1Ev(ptr noundef nonnull align 8 dereferenceable(96) %5) #3
  ret void

52:                                               ; preds = %46
  %53 = load ptr, ptr %12, align 8
  %54 = load i32, ptr %13, align 4
  %55 = insertvalue { ptr, i32 } poison, ptr %53, 0
  %56 = insertvalue { ptr, i32 } %55, i32 %54, 1
  resume { ptr, i32 } %56
}