; Function Attrs: mustprogress uwtable
define hidden void @_ZN11opencv_test37SobelEdgeDetector_OpenCV_Smarter_Test12PerfTestBodyEv(ptr noundef nonnull align 8 dereferenceable(673) %0) unnamed_addr #3 align 2 personality ptr @__gxx_personality_v0 {
  %2 = alloca %"class.cv::Mat", align 8
  %3 = alloca %"class.cv::Mat", align 8
  %4 = alloca %"class.cv::Mat", align 8
  %5 = alloca %"class.cv::Mat", align 8
  %6 = alloca %"class.cv::Mat", align 8
  %7 = alloca %"class.cv::Mat", align 8
  %8 = alloca %class.anon.34, align 8
  %9 = getelementptr inbounds i8, ptr %0, i64 248
  %10 = tail call noundef nonnull align 4 dereferenceable(8) ptr @_ZNK7testing18WithParamInterfaceIN2cv5Size_IiEEE8GetParamEv(ptr noundef nonnull align 8 dereferenceable(8) %9)
  %.sroa.01.0.copyload = load i64, ptr %10, align 4
  %11 = getelementptr inbounds i8, ptr %0, i64 256
  tail call void @_ZN11opencv_test14TestFunctional13initMatsRandUEiN2cv5Size_IiEEib(ptr noundef nonnull align 8 dereferenceable(416) %11, i32 noundef 16, i64 %.sroa.01.0.copyload, i32 noundef 16, i1 noundef zeroext false)
  call void @_ZN2cv3MatC1Ev(ptr noundef nonnull align 8 dereferenceable(96) %2) #25
  call void @_ZN2cv3MatC1Ev(ptr noundef nonnull align 8 dereferenceable(96) %3) #25
  call void @_ZN2cv3MatC1Ev(ptr noundef nonnull align 8 dereferenceable(96) %4) #25
  call void @_ZN2cv3MatC1Ev(ptr noundef nonnull align 8 dereferenceable(96) %5) #25
  call void @_ZN2cv3MatC1Ev(ptr noundef nonnull align 8 dereferenceable(96) %6) #25
  call void @_ZN2cv3MatC1Ev(ptr noundef nonnull align 8 dereferenceable(96) %7) #25
  store ptr %2, ptr %8, align 8
  %12 = getelementptr inbounds i8, ptr %8, i64 8
  store ptr %3, ptr %12, align 8
  %13 = getelementptr inbounds i8, ptr %8, i64 16
  store ptr %4, ptr %13, align 8
  %14 = getelementptr inbounds i8, ptr %8, i64 24
  store ptr %5, ptr %14, align 8
  %15 = getelementptr inbounds i8, ptr %8, i64 32
  store ptr %6, ptr %15, align 8
  %16 = getelementptr inbounds i8, ptr %8, i64 40
  store ptr %7, ptr %16, align 8
  %17 = getelementptr inbounds i8, ptr %0, i64 448
  invoke fastcc void @"_ZZN11opencv_test37SobelEdgeDetector_OpenCV_Smarter_Test12PerfTestBodyEvENK3$_0clERKN2cv3MatERS3_"(ptr noundef nonnull align 8 dereferenceable(48) %8, ptr noundef nonnull align 8 dereferenceable(96) %11, ptr noundef nonnull align 8 dereferenceable(96) %17)
          to label %.preheader unwind label %.loopexit.split-lp

.preheader:                                       ; preds = %1, %24
  %18 = invoke noundef zeroext i1 @_ZN4perf8TestBase4nextEv(ptr noundef nonnull align 8 dereferenceable(248) %0)
          to label %19 unwind label %.loopexit

19:                                               ; preds = %.preheader
  br i1 %18, label %20, label %.critedge

20:                                               ; preds = %19
  %21 = invoke noundef zeroext i1 @_ZN4perf8TestBase10startTimerEv(ptr noundef nonnull align 8 dereferenceable(248) %0)
          to label %22 unwind label %.loopexit

22:                                               ; preds = %20
  br i1 %21, label %23, label %.critedge

23:                                               ; preds = %22
  invoke fastcc void @"_ZZN11opencv_test37SobelEdgeDetector_OpenCV_Smarter_Test12PerfTestBodyEvENK3$_0clERKN2cv3MatERS3_"(ptr noundef nonnull align 8 dereferenceable(48) %8, ptr noundef nonnull align 8 dereferenceable(96) %11, ptr noundef nonnull align 8 dereferenceable(96) %17)
          to label %24 unwind label %.loopexit

24:                                               ; preds = %23
  invoke void @_ZN4perf8TestBase9stopTimerEv(ptr noundef nonnull align 8 dereferenceable(248) %0)
          to label %.preheader unwind label %.loopexit, !llvm.loop !21

.loopexit:                                        ; preds = %.preheader, %20, %23, %24
  %lpad.loopexit = landingpad { ptr, i32 }
          cleanup
  br label %25

.loopexit.split-lp:                               ; preds = %1
  %lpad.loopexit.split-lp = landingpad { ptr, i32 }
          cleanup
  br label %25

25:                                               ; preds = %.loopexit.split-lp, %.loopexit
  %lpad.phi = phi { ptr, i32 } [ %lpad.loopexit, %.loopexit ], [ %lpad.loopexit.split-lp, %.loopexit.split-lp ]
  call void @_ZN2cv3MatD1Ev(ptr noundef nonnull align 8 dereferenceable(96) %7) #25
  call void @_ZN2cv3MatD1Ev(ptr noundef nonnull align 8 dereferenceable(96) %6) #25
  call void @_ZN2cv3MatD1Ev(ptr noundef nonnull align 8 dereferenceable(96) %5) #25
  call void @_ZN2cv3MatD1Ev(ptr noundef nonnull align 8 dereferenceable(96) %4) #25
  call void @_ZN2cv3MatD1Ev(ptr noundef nonnull align 8 dereferenceable(96) %3) #25
  call void @_ZN2cv3MatD1Ev(ptr noundef nonnull align 8 dereferenceable(96) %2) #25
  resume { ptr, i32 } %lpad.phi

.critedge:                                        ; preds = %19, %22
  %26 = getelementptr inbounds i8, ptr %0, i64 232
  store i8 1, ptr %26, align 8
  call void @_ZN2cv3MatD1Ev(ptr noundef nonnull align 8 dereferenceable(96) %7) #25
  call void @_ZN2cv3MatD1Ev(ptr noundef nonnull align 8 dereferenceable(96) %6) #25
  call void @_ZN2cv3MatD1Ev(ptr noundef nonnull align 8 dereferenceable(96) %5) #25
  call void @_ZN2cv3MatD1Ev(ptr noundef nonnull align 8 dereferenceable(96) %4) #25
  call void @_ZN2cv3MatD1Ev(ptr noundef nonnull align 8 dereferenceable(96) %3) #25
  call void @_ZN2cv3MatD1Ev(ptr noundef nonnull align 8 dereferenceable(96) %2) #25
  ret void
}